target datalayout = "e-m:e-p270:32:32-p271:32:32-p272:64:64-i64:64-i128:128-f80:128-n8:16:32:64-S128"
target triple = "x86_64-pc-linux-gnu"

%struct.in6_addr = type { %union.anon.5 }
%union.anon.5 = type { [4 x i32] }
%struct.uv_udp_s = type { ptr, ptr, i32, ptr, [2 x ptr], %union.anon, ptr, i32, i64, i64, ptr, ptr, %struct.uv__io_s, [2 x ptr], [2 x ptr] }
%union.anon = type { [4 x ptr] }
%struct.uv__io_s = type { ptr, [2 x ptr], [2 x ptr], i32, i32, i32 }
%struct.sockaddr_storage = type { i16, [118 x i8], i64 }
%union.uv__sockaddr = type { %struct.sockaddr_in6 }
%struct.sockaddr_in6 = type { i16, i16, i32, %struct.in6_addr, i32 }
%struct.sockaddr_in = type { i16, i16, %struct.in_addr, [8 x i8] }
%struct.in_addr = type { i32 }
%struct.group_source_req = type { i32, %struct.sockaddr_storage, %struct.sockaddr_storage }
%struct.ip_mreq_source = type { %struct.in_addr, %struct.in_addr, %struct.in_addr }

@in6addr_any = external constant %struct.in6_addr, align 4

; Function Attrs: nounwind uwtable
define internal i32 @uv__udp_maybe_deferred_bind(ptr noundef %0, i32 noundef %1, i32 noundef %2) #0 {
  %4 = alloca i32, align 4
  %5 = alloca ptr, align 8
  %6 = alloca i32, align 4
  %7 = alloca i32, align 4
  %8 = alloca %union.uv__sockaddr, align 4
  %9 = alloca i32, align 4
  %10 = alloca ptr, align 8
  %11 = alloca ptr, align 8
  store ptr %0, ptr %5, align 8
  store i32 %1, ptr %6, align 4
  store i32 %2, ptr %7, align 4
  %12 = load ptr, ptr %5, align 8
  %13 = getelementptr inbounds %struct.uv_udp_s, ptr %12, i32 0, i32 12
  %14 = getelementptr inbounds %struct.uv__io_s, ptr %13, i32 0, i32 5
  %15 = load i32, ptr %14, align 8
  %16 = icmp ne i32 %15, -1
  br i1 %16, label %17, label %18

17:                                               ; preds = %3
  store i32 0, ptr %4, align 4
  br label %39

18:                                               ; preds = %3
  %19 = load i32, ptr %6, align 4
  switch i32 %19, label %33 [
    i32 2, label %20
    i32 10, label %27
  ]

20:                                               ; preds = %18
  store ptr %8, ptr %10, align 8
  %21 = load ptr, ptr %10, align 8
  call void @llvm.memset.p0.i64(ptr align 4 %21, i8 0, i64 16, i1 false)
  %22 = load ptr, ptr %10, align 8
  %23 = getelementptr inbounds %struct.sockaddr_in, ptr %22, i32 0, i32 0
  store i16 2, ptr %23, align 4
  %24 = load ptr, ptr %10, align 8
  %25 = getelementptr inbounds %struct.sockaddr_in, ptr %24, i32 0, i32 2
  %26 = getelementptr inbounds %struct.in_addr, ptr %25, i32 0, i32 0
  store i32 0, ptr %26, align 4
  store i32 16, ptr %9, align 4
  br label %34

27:                                               ; preds = %18
  store ptr %8, ptr %11, align 8
  %28 = load ptr, ptr %11, align 8
  call void @llvm.memset.p0.i64(ptr align 4 %28, i8 0, i64 28, i1 false)
  %29 = load ptr, ptr %11, align 8
  %30 = getelementptr inbounds %struct.sockaddr_in6, ptr %29, i32 0, i32 0
  store i16 10, ptr %30, align 4
  %31 = load ptr, ptr %11, align 8
  %32 = getelementptr inbounds %struct.sockaddr_in6, ptr %31, i32 0, i32 3
  call void @llvm.memcpy.p0.p0.i64(ptr align 4 %32, ptr align 4 @in6addr_any, i64 16, i1 false)
  store i32 28, ptr %9, align 4
  br label %34

33:                                               ; preds = %18
  call void @abort() #9
  unreachable

34:                                               ; preds = %27, %20
  %35 = load ptr, ptr %5, align 8
  %36 = load i32, ptr %9, align 4
  %37 = load i32, ptr %7, align 4
  %38 = call i32 @uv__udp_bind(ptr noundef %35, ptr noundef %8, i32 noundef %36, i32 noundef %37)
  store i32 %38, ptr %4, align 4
  br label %39

39:                                               ; preds = %34, %17
  %40 = load i32, ptr %4, align 4
  ret i32 %40
}

; Function Attrs: nounwind uwtable
define internal i32 @uv__udp_set_source_membership4(ptr noundef %0, ptr noundef %1, ptr noundef %2, ptr noundef %3, i32 noundef %4) #0 {
  %6 = alloca i32, align 4
  %7 = alloca ptr, align 8
  %8 = alloca ptr, align 8
  %9 = alloca ptr, align 8
  %10 = alloca ptr, align 8
  %11 = alloca i32, align 4
  %12 = alloca %struct.ip_mreq_source, align 4
  %13 = alloca i32, align 4
  %14 = alloca i32, align 4
  store ptr %0, ptr %7, align 8
  store ptr %1, ptr %8, align 8
  store ptr %2, ptr %9, align 8
  store ptr %3, ptr %10, align 8
  store i32 %4, ptr %11, align 4
  %15 = load ptr, ptr %7, align 8
  %16 = call i32 @uv__udp_maybe_deferred_bind(ptr noundef %15, i32 noundef 2, i32 noundef 4)
  store i32 %16, ptr %14, align 4
  %17 = load i32, ptr %14, align 4
  %18 = icmp ne i32 %17, 0
  br i1 %18, label %19, label %21

19:                                               ; preds = %5
  %20 = load i32, ptr %14, align 4
  store i32 %20, ptr %6, align 4
  br label %73

21:                                               ; preds = %5
  call void @llvm.memset.p0.i64(ptr align 4 %12, i8 0, i64 12, i1 false)
  %22 = load ptr, ptr %9, align 8
  %23 = icmp ne ptr %22, null
  br i1 %23, label %24, label %34

24:                                               ; preds = %21
  %25 = load ptr, ptr %9, align 8
  %26 = getelementptr inbounds %struct.ip_mreq_source, ptr %12, i32 0, i32 1
  %27 = getelementptr inbounds %struct.in_addr, ptr %26, i32 0, i32 0
  %28 = call i32 @uv_inet_pton(i32 noundef 2, ptr noundef %25, ptr noundef %27)
  store i32 %28, ptr %14, align 4
  %29 = load i32, ptr %14, align 4
  %30 = icmp ne i32 %29, 0
  br i1 %30, label %31, label %33

31:                                               ; preds = %24
  %32 = load i32, ptr %14, align 4
  store i32 %32, ptr %6, align 4
  br label %73

33:                                               ; preds = %24
  br label %38

34:                                               ; preds = %21
  %35 = call i32 @htonl(i32 noundef 0) #8
  %36 = getelementptr inbounds %struct.ip_mreq_source, ptr %12, i32 0, i32 1
  %37 = getelementptr inbounds %struct.in_addr, ptr %36, i32 0, i32 0
  store i32 %35, ptr %37, align 4
  br label %38

38:                                               ; preds = %34, %33
  %39 = load ptr, ptr %8, align 8
  %40 = getelementptr inbounds %struct.sockaddr_in, ptr %39, i32 0, i32 2
  %41 = getelementptr inbounds %struct.in_addr, ptr %40, i32 0, i32 0
  %42 = load i32, ptr %41, align 4
  %43 = getelementptr inbounds %struct.ip_mreq_source, ptr %12, i32 0, i32 0
  %44 = getelementptr inbounds %struct.in_addr, ptr %43, i32 0, i32 0
  store i32 %42, ptr %44, align 4
  %45 = load ptr, ptr %10, align 8
  %46 = getelementptr inbounds %struct.sockaddr_in, ptr %45, i32 0, i32 2
  %47 = getelementptr inbounds %struct.in_addr, ptr %46, i32 0, i32 0
  %48 = load i32, ptr %47, align 4
  %49 = getelementptr inbounds %struct.ip_mreq_source, ptr %12, i32 0, i32 2
  %50 = getelementptr inbounds %struct.in_addr, ptr %49, i32 0, i32 0
  store i32 %48, ptr %50, align 4
  %51 = load i32, ptr %11, align 4
  %52 = icmp eq i32 %51, 1
  br i1 %52, label %53, label %54

53:                                               ; preds = %38
  store i32 39, ptr %13, align 4
  br label %60

54:                                               ; preds = %38
  %55 = load i32, ptr %11, align 4
  %56 = icmp eq i32 %55, 0
  br i1 %56, label %57, label %58

57:                                               ; preds = %54
  store i32 40, ptr %13, align 4
  br label %59

58:                                               ; preds = %54
  store i32 -22, ptr %6, align 4
  br label %73

59:                                               ; preds = %57
  br label %60

60:                                               ; preds = %59, %53
  %61 = load ptr, ptr %7, align 8
  %62 = getelementptr inbounds %struct.uv_udp_s, ptr %61, i32 0, i32 12
  %63 = getelementptr inbounds %struct.uv__io_s, ptr %62, i32 0, i32 5
  %64 = load i32, ptr %63, align 8
  %65 = load i32, ptr %13, align 4
  %66 = call i32 @setsockopt(i32 noundef %64, i32 noundef 0, i32 noundef %65, ptr noundef %12, i32 noundef 12) #7
  %67 = icmp ne i32 %66, 0
  br i1 %67, label %68, label %72

68:                                               ; preds = %60
  %69 = call ptr @__errno_location() #8
  %70 = load i32, ptr %69, align 4
  %71 = sub nsw i32 0, %70
  store i32 %71, ptr %6, align 4
  br label %73

72:                                               ; preds = %60
  store i32 0, ptr %6, align 4
  br label %73

73:                                               ; preds = %72, %68, %58, %31, %19
  %74 = load i32, ptr %6, align 4
  ret i32 %74
}

; Function Attrs: nounwind uwtable
define internal i32 @uv__udp_set_source_membership6(ptr noundef %0, ptr noundef %1, ptr noundef %2, ptr noundef %3, i32 noundef %4) #0 {
  %6 = alloca i32, align 4
  %7 = alloca ptr, align 8
  %8 = alloca ptr, align 8
  %9 = alloca ptr, align 8
  %10 = alloca ptr, align 8
  %11 = alloca i32, align 4
  %12 = alloca %struct.group_source_req, align 8
  %13 = alloca %struct.sockaddr_in6, align 4
  %14 = alloca i32, align 4
  %15 = alloca i32, align 4
  store ptr %0, ptr %7, align 8
  store ptr %1, ptr %8, align 8
  store ptr %2, ptr %9, align 8
  store ptr %3, ptr %10, align 8
  store i32 %4, ptr %11, align 4
  %16 = load ptr, ptr %7, align 8
  %17 = call i32 @uv__udp_maybe_deferred_bind(ptr noundef %16, i32 noundef 10, i32 noundef 4)
  store i32 %17, ptr %15, align 4
  %18 = load i32, ptr %15, align 4
  %19 = icmp ne i32 %18, 0
  br i1 %19, label %20, label %22

20:                                               ; preds = %5
  %21 = load i32, ptr %15, align 4
  store i32 %21, ptr %6, align 4
  br label %65

22:                                               ; preds = %5
  call void @llvm.memset.p0.i64(ptr align 8 %12, i8 0, i64 264, i1 false)
  %23 = load ptr, ptr %9, align 8
  %24 = icmp ne ptr %23, null
  br i1 %24, label %25, label %36

25:                                               ; preds = %22
  %26 = load ptr, ptr %9, align 8
  %27 = call i32 @uv_ip6_addr(ptr noundef %26, i32 noundef 0, ptr noundef %13)
  store i32 %27, ptr %15, align 4
  %28 = load i32, ptr %15, align 4
  %29 = icmp ne i32 %28, 0
  br i1 %29, label %30, label %32

30:                                               ; preds = %25
  %31 = load i32, ptr %15, align 4
  store i32 %31, ptr %6, align 4
  br label %65

32:                                               ; preds = %25
  %33 = getelementptr inbounds %struct.sockaddr_in6, ptr %13, i32 0, i32 4
  %34 = load i32, ptr %33, align 4
  %35 = getelementptr inbounds %struct.group_source_req, ptr %12, i32 0, i32 0
  store i32 %34, ptr %35, align 8
  br label %38

36:                                               ; preds = %22
  %37 = getelementptr inbounds %struct.group_source_req, ptr %12, i32 0, i32 0
  store i32 0, ptr %37, align 8
  br label %38

38:                                               ; preds = %36, %32
  %39 = getelementptr inbounds %struct.group_source_req, ptr %12, i32 0, i32 1
  %40 = load ptr, ptr %8, align 8
  call void @llvm.memcpy.p0.p0.i64(ptr align 8 %39, ptr align 4 %40, i64 28, i1 false)
  %41 = getelementptr inbounds %struct.group_source_req, ptr %12, i32 0, i32 2
  %42 = load ptr, ptr %10, align 8
  call void @llvm.memcpy.p0.p0.i64(ptr align 8 %41, ptr align 4 %42, i64 28, i1 false)
  %43 = load i32, ptr %11, align 4
  %44 = icmp eq i32 %43, 1
  br i1 %44, label %45, label %46

45:                                               ; preds = %38
  store i32 46, ptr %14, align 4
  br label %52

46:                                               ; preds = %38
  %47 = load i32, ptr %11, align 4
  %48 = icmp eq i32 %47, 0
  br i1 %48, label %49, label %50

49:                                               ; preds = %46
  store i32 47, ptr %14, align 4
  br label %51

50:                                               ; preds = %46
  store i32 -22, ptr %6, align 4
  br label %65

51:                                               ; preds = %49
  br label %52

52:                                               ; preds = %51, %45
  %53 = load ptr, ptr %7, align 8
  %54 = getelementptr inbounds %struct.uv_udp_s, ptr %53, i32 0, i32 12
  %55 = getelementptr inbounds %struct.uv__io_s, ptr %54, i32 0, i32 5
  %56 = load i32, ptr %55, align 8
  %57 = load i32, ptr %14, align 4
  %58 = call i32 @setsockopt(i32 noundef %56, i32 noundef 41, i32 noundef %57, ptr noundef %12, i32 noundef 264) #7
  %59 = icmp ne i32 %58, 0
  br i1 %59, label %60, label %64

60:                                               ; preds = %52
  %61 = call ptr @__errno_location() #8
  %62 = load i32, ptr %61, align 4
  %63 = sub nsw i32 0, %62
  store i32 %63, ptr %6, align 4
  br label %65

64:                                               ; preds = %52
  store i32 0, ptr %6, align 4
  br label %65

65:                                               ; preds = %64, %60, %50, %30, %20
  %66 = load i32, ptr %6, align 4
  ret i32 %66
}

; Function Attrs: nounwind uwtable
define dso_local i32 @uv_udp_set_source_membership(ptr noundef %0, ptr noundef %1, ptr noundef %2, ptr noundef %3, i32 noundef %4) #0 {
  %6 = alloca i32, align 4
  %7 = alloca ptr, align 8
  %8 = alloca ptr, align 8
  %9 = alloca ptr, align 8
  %10 = alloca ptr, align 8
  %11 = alloca i32, align 4
  %12 = alloca i32, align 4
  %13 = alloca %union.uv__sockaddr, align 4
  %14 = alloca %union.uv__sockaddr, align 4
  store ptr %0, ptr %7, align 8
  store ptr %1, ptr %8, align 8
  store ptr %2, ptr %9, align 8
  store ptr %3, ptr %10, align 8
  store i32 %4, ptr %11, align 4
  %15 = load ptr, ptr %8, align 8
  %16 = call i32 @uv_ip4_addr(ptr noundef %15, i32 noundef 0, ptr noundef %13)
  store i32 %16, ptr %12, align 4
  %17 = load i32, ptr %12, align 4
  %18 = icmp ne i32 %17, 0
  br i1 %18, label %19, label %38

19:                                               ; preds = %5
  %20 = load ptr, ptr %8, align 8
  %21 = call i32 @uv_ip6_addr(ptr noundef %20, i32 noundef 0, ptr noundef %13)
  store i32 %21, ptr %12, align 4
  %22 = load i32, ptr %12, align 4
  %23 = icmp ne i32 %22, 0
  br i1 %23, label %24, label %26

24:                                               ; preds = %19
  %25 = load i32, ptr %12, align 4
  store i32 %25, ptr %6, align 4
  br label %50

26:                                               ; preds = %19
  %27 = load ptr, ptr %10, align 8
  %28 = call i32 @uv_ip6_addr(ptr noundef %27, i32 noundef 0, ptr noundef %14)
  store i32 %28, ptr %12, align 4
  %29 = load i32, ptr %12, align 4
  %30 = icmp ne i32 %29, 0
  br i1 %30, label %31, label %33

31:                                               ; preds = %26
  %32 = load i32, ptr %12, align 4
  store i32 %32, ptr %6, align 4
  br label %50

33:                                               ; preds = %26
  %34 = load ptr, ptr %7, align 8
  %35 = load ptr, ptr %9, align 8
  %36 = load i32, ptr %11, align 4
  %37 = call i32 @uv__udp_set_source_membership6(ptr noundef %34, ptr noundef %13, ptr noundef %35, ptr noundef %14, i32 noundef %36)
  store i32 %37, ptr %6, align 4
  br label %50

38:                                               ; preds = %5
  %39 = load ptr, ptr %10, align 8
  %40 = call i32 @uv_ip4_addr(ptr noundef %39, i32 noundef 0, ptr noundef %14)
  store i32 %40, ptr %12, align 4
  %41 = load i32, ptr %12, align 4
  %42 = icmp ne i32 %41, 0
  br i1 %42, label %43, label %45

43:                                               ; preds = %38
  %44 = load i32, ptr %12, align 4
  store i32 %44, ptr %6, align 4
  br label %50

45:                                               ; preds = %38
  %46 = load ptr, ptr %7, align 8
  %47 = load ptr, ptr %9, align 8
  %48 = load i32, ptr %11, align 4
  %49 = call i32 @uv__udp_set_source_membership4(ptr noundef %46, ptr noundef %13, ptr noundef %47, ptr noundef %14, i32 noundef %48)
  store i32 %49, ptr %6, align 4
  br label %50

50:                                               ; preds = %45, %43, %33, %31, %24
  %51 = load i32, ptr %6, align 4
  ret i32 %51
}