; Function Attrs: nounwind uwtable
define dso_local i32 @uv_udp_set_source_membership(ptr noundef captures(none) %0, ptr noundef %1, ptr noundef %2, ptr noundef %3, i32 noundef %4) local_unnamed_addr #0 {
  %6 = alloca %union.uv__sockaddr, align 4
  %7 = alloca %struct.ip_mreq_source, align 4
  %8 = alloca %union.uv__sockaddr, align 4
  %9 = alloca %struct.group_source_req, align 8
  %10 = alloca %struct.sockaddr_in6, align 4
  %11 = alloca %union.uv__sockaddr, align 4
  %12 = alloca %union.uv__sockaddr, align 4
  %13 = call i32 @uv_ip4_addr(ptr noundef %1, i32 noundef 0, ptr noundef nonnull %11) #9
  %.not = icmp eq i32 %13, 0
  br i1 %.not, label %40, label %14

14:                                               ; preds = %5
  %15 = call i32 @uv_ip6_addr(ptr noundef %1, i32 noundef 0, ptr noundef nonnull %11) #9
  %.not21 = icmp eq i32 %15, 0
  br i1 %.not21, label %16, label %67

16:                                               ; preds = %14
  %17 = call i32 @uv_ip6_addr(ptr noundef %3, i32 noundef 0, ptr noundef nonnull %12) #9
  %.not22 = icmp eq i32 %17, 0
  br i1 %.not22, label %18, label %67

18:                                               ; preds = %16
  call void @llvm.lifetime.start.p0(i64 264, ptr nonnull %9)
  call void @llvm.lifetime.start.p0(i64 28, ptr nonnull %10)
  call void @llvm.lifetime.start.p0(i64 28, ptr nonnull %8)
  %19 = getelementptr inbounds nuw i8, ptr %0, i64 176
  %20 = load i32, ptr %19, align 8
  %.not.i.i = icmp eq i32 %20, -1
  br i1 %.not.i.i, label %uv__udp_maybe_deferred_bind.exit.i, label %uv__udp_maybe_deferred_bind.exit.thread.i

uv__udp_maybe_deferred_bind.exit.thread.i:        ; preds = %18
  call void @llvm.lifetime.end.p0(i64 28, ptr nonnull %8)
  br label %23

uv__udp_maybe_deferred_bind.exit.i:               ; preds = %18
  call void @llvm.memset.p0.i64(ptr noundef nonnull align 4 dereferenceable(28) %8, i8 0, i64 28, i1 false)
  store i16 10, ptr %8, align 4
  %21 = getelementptr inbounds nuw i8, ptr %8, i64 8
  call void @llvm.memcpy.p0.p0.i64(ptr noundef nonnull align 4 dereferenceable(16) %21, ptr noundef nonnull align 4 dereferenceable(16) @in6addr_any, i64 16, i1 false)
  %22 = call i32 @uv__udp_bind(ptr noundef nonnull %0, ptr noundef nonnull %8, i32 noundef 28, i32 noundef 4)
  call void @llvm.lifetime.end.p0(i64 28, ptr nonnull %8)
  %.not.i = icmp eq i32 %22, 0
  br i1 %.not.i, label %23, label %uv__udp_set_source_membership6.exit

23:                                               ; preds = %uv__udp_maybe_deferred_bind.exit.i, %uv__udp_maybe_deferred_bind.exit.thread.i
  call void @llvm.memset.p0.i64(ptr noundef nonnull align 8 dereferenceable(264) %9, i8 0, i64 264, i1 false)
  %.not18.i = icmp eq ptr %2, null
  br i1 %.not18.i, label %29, label %24

24:                                               ; preds = %23
  %25 = call i32 @uv_ip6_addr(ptr noundef nonnull %2, i32 noundef 0, ptr noundef nonnull %10) #9
  %.not19.i = icmp eq i32 %25, 0
  br i1 %.not19.i, label %26, label %uv__udp_set_source_membership6.exit

26:                                               ; preds = %24
  %27 = getelementptr inbounds nuw i8, ptr %10, i64 24
  %28 = load i32, ptr %27, align 4
  br label %29

29:                                               ; preds = %26, %23
  %storemerge.i = phi i32 [ %28, %26 ], [ 0, %23 ]
  store i32 %storemerge.i, ptr %9, align 8
  %30 = getelementptr inbounds nuw i8, ptr %9, i64 8
  call void @llvm.memcpy.p0.p0.i64(ptr noundef nonnull align 8 dereferenceable(28) %30, ptr noundef nonnull readonly align 4 dereferenceable(28) %11, i64 28, i1 false)
  %31 = getelementptr inbounds nuw i8, ptr %9, i64 136
  call void @llvm.memcpy.p0.p0.i64(ptr noundef nonnull align 8 dereferenceable(28) %31, ptr noundef nonnull readonly align 4 dereferenceable(28) %12, i64 28, i1 false)
  switch i32 %4, label %uv__udp_set_source_membership6.exit [
    i32 1, label %33
    i32 0, label %32
  ]

32:                                               ; preds = %29
  br label %33

33:                                               ; preds = %32, %29
  %.0.i = phi i32 [ 47, %32 ], [ 46, %29 ]
  %34 = load i32, ptr %19, align 8
  %35 = call i32 @setsockopt(i32 noundef %34, i32 noundef 41, i32 noundef %.0.i, ptr noundef nonnull %9, i32 noundef 264) #9
  %.not20.i = icmp eq i32 %35, 0
  br i1 %.not20.i, label %uv__udp_set_source_membership6.exit, label %36

36:                                               ; preds = %33
  %37 = tail call ptr @__errno_location() #10
  %38 = load i32, ptr %37, align 4
  %39 = sub nsw i32 0, %38
  br label %uv__udp_set_source_membership6.exit

uv__udp_set_source_membership6.exit:              ; preds = %uv__udp_maybe_deferred_bind.exit.i, %24, %29, %33, %36
  %.013.i = phi i32 [ %39, %36 ], [ %22, %uv__udp_maybe_deferred_bind.exit.i ], [ %25, %24 ], [ -22, %29 ], [ 0, %33 ]
  call void @llvm.lifetime.end.p0(i64 264, ptr nonnull %9)
  call void @llvm.lifetime.end.p0(i64 28, ptr nonnull %10)
  br label %67

40:                                               ; preds = %5
  %41 = call i32 @uv_ip4_addr(ptr noundef %3, i32 noundef 0, ptr noundef nonnull %12) #9
  %.not20 = icmp eq i32 %41, 0
  br i1 %.not20, label %42, label %67

42:                                               ; preds = %40
  call void @llvm.lifetime.start.p0(i64 12, ptr nonnull %7)
  call void @llvm.lifetime.start.p0(i64 28, ptr nonnull %6)
  %43 = getelementptr inbounds nuw i8, ptr %0, i64 176
  %44 = load i32, ptr %43, align 8
  %.not.i.i23 = icmp eq i32 %44, -1
  br i1 %.not.i.i23, label %uv__udp_maybe_deferred_bind.exit.i30, label %uv__udp_maybe_deferred_bind.exit.thread.i24

uv__udp_maybe_deferred_bind.exit.thread.i24:      ; preds = %42
  call void @llvm.lifetime.end.p0(i64 28, ptr nonnull %6)
  br label %46

uv__udp_maybe_deferred_bind.exit.i30:             ; preds = %42
  call void @llvm.memset.p0.i64(ptr noundef nonnull align 4 dereferenceable(16) %6, i8 0, i64 16, i1 false)
  store i16 2, ptr %6, align 4
  %45 = call i32 @uv__udp_bind(ptr noundef nonnull %0, ptr noundef nonnull %6, i32 noundef 16, i32 noundef 4)
  call void @llvm.lifetime.end.p0(i64 28, ptr nonnull %6)
  %.not.i31 = icmp eq i32 %45, 0
  br i1 %.not.i31, label %46, label %uv__udp_set_source_membership4.exit

46:                                               ; preds = %uv__udp_maybe_deferred_bind.exit.i30, %uv__udp_maybe_deferred_bind.exit.thread.i24
  call void @llvm.memset.p0.i64(ptr noundef nonnull align 4 dereferenceable(12) %7, i8 0, i64 12, i1 false)
  %.not18.i25 = icmp eq ptr %2, null
  br i1 %.not18.i25, label %50, label %47

47:                                               ; preds = %46
  %48 = getelementptr inbounds nuw i8, ptr %7, i64 4
  %49 = call i32 @uv_inet_pton(i32 noundef 2, ptr noundef nonnull %2, ptr noundef nonnull %48) #9
  %.not19.i26 = icmp eq i32 %49, 0
  br i1 %.not19.i26, label %53, label %uv__udp_set_source_membership4.exit

50:                                               ; preds = %46
  %51 = call i32 @htonl(i32 noundef 0) #10
  %52 = getelementptr inbounds nuw i8, ptr %7, i64 4
  store i32 %51, ptr %52, align 4
  br label %53

53:                                               ; preds = %50, %47
  %54 = getelementptr inbounds nuw i8, ptr %11, i64 4
  %55 = load i32, ptr %54, align 4
  store i32 %55, ptr %7, align 4
  %56 = getelementptr inbounds nuw i8, ptr %12, i64 4
  %57 = load i32, ptr %56, align 4
  %58 = getelementptr inbounds nuw i8, ptr %7, i64 8
  store i32 %57, ptr %58, align 4
  switch i32 %4, label %uv__udp_set_source_membership4.exit [
    i32 1, label %60
    i32 0, label %59
  ]

59:                                               ; preds = %53
  br label %60

60:                                               ; preds = %59, %53
  %.0.i28 = phi i32 [ 40, %59 ], [ 39, %53 ]
  %61 = load i32, ptr %43, align 8
  %62 = call i32 @setsockopt(i32 noundef %61, i32 noundef 0, i32 noundef %.0.i28, ptr noundef nonnull %7, i32 noundef 12) #9
  %.not20.i29 = icmp eq i32 %62, 0
  br i1 %.not20.i29, label %uv__udp_set_source_membership4.exit, label %63

63:                                               ; preds = %60
  %64 = tail call ptr @__errno_location() #10
  %65 = load i32, ptr %64, align 4
  %66 = sub nsw i32 0, %65
  br label %uv__udp_set_source_membership4.exit

uv__udp_set_source_membership4.exit:              ; preds = %uv__udp_maybe_deferred_bind.exit.i30, %47, %53, %60, %63
  %.013.i27 = phi i32 [ %66, %63 ], [ %45, %uv__udp_maybe_deferred_bind.exit.i30 ], [ %49, %47 ], [ -22, %53 ], [ 0, %60 ]
  call void @llvm.lifetime.end.p0(i64 12, ptr nonnull %7)
  br label %67

67:                                               ; preds = %40, %16, %14, %uv__udp_set_source_membership4.exit, %uv__udp_set_source_membership6.exit
  %.0 = phi i32 [ %.013.i, %uv__udp_set_source_membership6.exit ], [ %.013.i27, %uv__udp_set_source_membership4.exit ], [ %15, %14 ], [ %17, %16 ], [ %41, %40 ]
  ret i32 %.0
}